; ModuleID = '40/1042.c'
source_filename = "40/1042.c"
target datalayout = "e-m:e-p270:32:32-p271:32:32-p272:64:64-i64:64-f80:128-n8:16:32:64-S128"
target triple = "x86_64-pc-linux-gnu"

@.str = private unnamed_addr constant [16 x i8] c"%lf%lf%lf%lf%lf\00", align 1
@.str.1 = private unnamed_addr constant [14 x i8] c"Invalid input\00", align 1
@.str.2 = private unnamed_addr constant [6 x i8] c"%.4lf\00", align 1

; Function Attrs: noinline nounwind uwtable
define dso_local i32 @main(i32 %0, i8** %1) #0 {
  %3 = alloca i32, align 4
  %4 = alloca i32, align 4
  %5 = alloca i8**, align 8
  %6 = alloca double, align 8
  %7 = alloca double, align 8
  %8 = alloca double, align 8
  %9 = alloca double, align 8
  %10 = alloca double, align 8
  %11 = alloca double, align 8
  %12 = alloca double, align 8
  store i32 0, i32* %3, align 4
  store i32 %0, i32* %4, align 4
  store i8** %1, i8*** %5, align 8
  %13 = call i32 (i8*, ...) @__isoc99_scanf(i8* getelementptr inbounds ([16 x i8], [16 x i8]* @.str, i64 0, i64 0), double* %6, double* %7, double* %8, double* %9, double* %10)
  %14 = load double, double* %6, align 8
  %15 = load double, double* %7, align 8
  %16 = fadd double %14, %15
  %17 = load double, double* %8, align 8
  %18 = fadd double %16, %17
  %19 = load double, double* %9, align 8
  %20 = fadd double %18, %19
  %21 = fdiv double %20, 2.000000e+00
  store double %21, double* %11, align 8
  %22 = load double, double* %11, align 8
  %23 = load double, double* %6, align 8
  %24 = fsub double %22, %23
  %25 = load double, double* %11, align 8
  %26 = load double, double* %7, align 8
  %27 = fsub double %25, %26
  %28 = fmul double %24, %27
  %29 = load double, double* %11, align 8
  %30 = load double, double* %8, align 8
  %31 = fsub double %29, %30
  %32 = fmul double %28, %31
  %33 = load double, double* %11, align 8
  %34 = load double, double* %9, align 8
  %35 = fsub double %33, %34
  %36 = fmul double %32, %35
  %37 = load double, double* %6, align 8
  %38 = load double, double* %7, align 8
  %39 = fmul double %37, %38
  %40 = load double, double* %8, align 8
  %41 = fmul double %39, %40
  %42 = load double, double* %9, align 8
  %43 = fmul double %41, %42
  %44 = load double, double* %10, align 8
  %45 = fmul double %44, 0x400921FB4D12D84A
  %46 = fdiv double %45, 3.600000e+02
  %47 = call double @cos(double %46) #3
  %48 = fmul double %43, %47
  %49 = load double, double* %10, align 8
  %50 = fmul double %49, 0x400921FB4D12D84A
  %51 = fdiv double %50, 3.600000e+02
  %52 = call double @cos(double %51) #3
  %53 = fmul double %48, %52
  %54 = fsub double %36, %53
  %55 = call double @sqrt(double %54) #3
  store double %55, double* %12, align 8
  %56 = load double, double* %11, align 8
  %57 = load double, double* %6, align 8
  %58 = fsub double %56, %57
  %59 = load double, double* %11, align 8
  %60 = load double, double* %7, align 8
  %61 = fsub double %59, %60
  %62 = fmul double %58, %61
  %63 = load double, double* %11, align 8
  %64 = load double, double* %8, align 8
  %65 = fsub double %63, %64
  %66 = fmul double %62, %65
  %67 = load double, double* %11, align 8
  %68 = load double, double* %9, align 8
  %69 = fsub double %67, %68
  %70 = fmul double %66, %69
  %71 = load double, double* %6, align 8
  %72 = load double, double* %7, align 8
  %73 = fmul double %71, %72
  %74 = load double, double* %8, align 8
  %75 = fmul double %73, %74
  %76 = load double, double* %9, align 8
  %77 = fmul double %75, %76
  %78 = load double, double* %10, align 8
  %79 = fmul double %78, 0x400921FB4D12D84A
  %80 = fdiv double %79, 3.600000e+02
  %81 = call double @cos(double %80) #3
  %82 = fmul double %77, %81
  %83 = load double, double* %10, align 8
  %84 = fmul double %83, 0x400921FB4D12D84A
  %85 = fdiv double %84, 3.600000e+02
  %86 = call double @cos(double %85) #3
  %87 = fmul double %82, %86
  %88 = fsub double %70, %87
  %89 = fcmp olt double %88, 0.000000e+00
  br i1 %89, label %90, label %92

90:                                               ; preds = %2
  %91 = call i32 (i8*, ...) @printf(i8* getelementptr inbounds ([14 x i8], [14 x i8]* @.str.1, i64 0, i64 0))
  br label %95

92:                                               ; preds = %2
  %93 = load double, double* %12, align 8
  %94 = call i32 (i8*, ...) @printf(i8* getelementptr inbounds ([6 x i8], [6 x i8]* @.str.2, i64 0, i64 0), double %93)
  br label %95

95:                                               ; preds = %92, %90
  ret i32 0
}

declare dso_local i32 @__isoc99_scanf(i8*, ...) #1

; Function Attrs: nounwind
declare dso_local double @sqrt(double) #2

; Function Attrs: nounwind
declare dso_local double @cos(double) #2

declare dso_local i32 @printf(i8*, ...) #1


!llvm.module.flags = !{!0}
!llvm.ident = !{!1}

!0 = !{i32 1, !"wchar_size", i32 4}
!1 = !{!"clang version 10.0.0-4ubuntu1 "}
